target datalayout = "e-m:e-p270:32:32-p271:32:32-p272:64:64-i64:64-i128:128-f80:128-n8:16:32:64-S128"
target triple = "x86_64-pc-linux-gnu"

%struct.preference = type { ptr, ptr, ptr, i32, i32, i32, %union.anon, %union.anon.0, %union.anon.1, %union.anon.2, %struct.pref_custom_cbs, ptr, ptr }
%union.anon = type { ptr }
%union.anon.0 = type { ptr }
%union.anon.1 = type { ptr }
%union.anon.2 = type { %struct.anon }
%struct.anon = type { ptr, i8 }
%struct.pref_custom_cbs = type { ptr, ptr, ptr, ptr, ptr, ptr, ptr }
%struct.epan_range = type { i32, [0 x %struct.range_admin_tag] }
%struct.range_admin_tag = type { i32, i32 }

; Function Attrs: null_pointer_is_valid sspstrong uwtable
define void @prefs_range_add_value(ptr noundef %0, i32 noundef %1) #1 {
  %3 = alloca ptr, align 8
  %4 = alloca i32, align 4
  store ptr %0, ptr %3, align 8
  store i32 %1, ptr %4, align 4
  %5 = call ptr @wmem_epan_scope()
  %6 = load ptr, ptr %3, align 8
  %7 = getelementptr inbounds nuw %struct.preference, ptr %6, i32 0, i32 6
  %8 = load ptr, ptr %7, align 8
  %9 = load i32, ptr %4, align 4
  %10 = call zeroext i1 @range_add_value(ptr noundef %5, ptr noundef %8, i32 noundef %9)
  ret void
}

; Function Attrs: null_pointer_is_valid sspstrong uwtable
define zeroext i1 @prefs_add_decode_as_value(ptr noundef %0, i32 noundef %1, i1 noundef zeroext %2) #1 {
  %4 = alloca ptr, align 8
  %5 = alloca i32, align 4
  %6 = alloca i8, align 1
  store ptr %0, ptr %4, align 8
  store i32 %1, ptr %5, align 4
  %7 = zext i1 %2 to i8
  store i8 %7, ptr %6, align 1
  %8 = load ptr, ptr %4, align 8
  %9 = getelementptr inbounds nuw %struct.preference, ptr %8, i32 0, i32 4
  %10 = load i32, ptr %9, align 4
  switch i32 %10, label %55 [
    i32 8192, label %11
  ]

11:                                               ; preds = %3
  %12 = load i8, ptr %6, align 1, !range !6, !noundef !7
  %13 = trunc i8 %12 to i1
  br i1 %13, label %14, label %52

14:                                               ; preds = %11
  %15 = load ptr, ptr %4, align 8
  %16 = getelementptr inbounds nuw %struct.preference, ptr %15, i32 0, i32 6
  %17 = load ptr, ptr %16, align 8
  %18 = load ptr, ptr %17, align 8
  %19 = getelementptr inbounds nuw %struct.epan_range, ptr %18, i32 0, i32 0
  %20 = load i32, ptr %19, align 4
  %21 = icmp eq i32 %20, 1
  br i1 %21, label %22, label %51

22:                                               ; preds = %14
  %23 = load ptr, ptr %4, align 8
  %24 = getelementptr inbounds nuw %struct.preference, ptr %23, i32 0, i32 6
  %25 = load ptr, ptr %24, align 8
  %26 = load ptr, ptr %25, align 8
  %27 = getelementptr inbounds nuw %struct.epan_range, ptr %26, i32 0, i32 1
  %28 = getelementptr [0 x %struct.range_admin_tag], ptr %27, i64 0, i64 0
  %29 = getelementptr inbounds nuw %struct.range_admin_tag, ptr %28, i32 0, i32 0
  %30 = load i32, ptr %29, align 4
  %31 = load ptr, ptr %4, align 8
  %32 = getelementptr inbounds nuw %struct.preference, ptr %31, i32 0, i32 6
  %33 = load ptr, ptr %32, align 8
  %34 = load ptr, ptr %33, align 8
  %35 = getelementptr inbounds nuw %struct.epan_range, ptr %34, i32 0, i32 1
  %36 = getelementptr [0 x %struct.range_admin_tag], ptr %35, i64 0, i64 0
  %37 = getelementptr inbounds nuw %struct.range_admin_tag, ptr %36, i32 0, i32 1
  %38 = load i32, ptr %37, align 4
  %39 = icmp eq i32 %30, %38
  br i1 %39, label %40, label %51

40:                                               ; preds = %22
  %41 = call ptr @wmem_epan_scope()
  %42 = load ptr, ptr %4, align 8
  %43 = getelementptr inbounds nuw %struct.preference, ptr %42, i32 0, i32 6
  %44 = load ptr, ptr %43, align 8
  %45 = load ptr, ptr %44, align 8
  call void @wmem_free(ptr noundef %41, ptr noundef %45)
  %46 = call ptr @wmem_epan_scope()
  %47 = call ptr @range_empty(ptr noundef %46)
  %48 = load ptr, ptr %4, align 8
  %49 = getelementptr inbounds nuw %struct.preference, ptr %48, i32 0, i32 6
  %50 = load ptr, ptr %49, align 8
  store ptr %47, ptr %50, align 8
  br label %51

51:                                               ; preds = %40, %22, %14
  br label %52

52:                                               ; preds = %51, %11
  %53 = load ptr, ptr %4, align 8
  %54 = load i32, ptr %5, align 4
  call void @prefs_range_add_value(ptr noundef %53, i32 noundef %54)
  br label %56

55:                                               ; preds = %3
  br label %56

56:                                               ; preds = %55, %52
  ret i1 true
}