; Function Attrs: null_pointer_is_valid sspstrong uwtable
define noundef zeroext i1 @prefs_add_decode_as_value(ptr noundef readonly captures(none) %0, i32 noundef %1, i1 noundef zeroext %2) local_unnamed_addr #1 {
  %4 = getelementptr inbounds nuw i8, ptr %0, i64 28
  %5 = load i32, ptr %4, align 4
  %cond = icmp eq i32 %5, 8192
  br i1 %cond, label %6, label %31

6:                                                ; preds = %3
  br i1 %2, label %7, label %26

7:                                                ; preds = %6
  %8 = getelementptr inbounds nuw i8, ptr %0, i64 40
  %9 = load ptr, ptr %8, align 8
  %10 = load ptr, ptr %9, align 8
  %11 = load i32, ptr %10, align 4
  %12 = icmp eq i32 %11, 1
  br i1 %12, label %13, label %26

13:                                               ; preds = %7
  %14 = getelementptr inbounds nuw i8, ptr %10, i64 4
  %15 = load i32, ptr %14, align 4
  %16 = getelementptr inbounds nuw i8, ptr %10, i64 8
  %17 = load i32, ptr %16, align 4
  %18 = icmp eq i32 %15, %17
  br i1 %18, label %19, label %26

19:                                               ; preds = %13
  %20 = tail call ptr @wmem_epan_scope()
  %21 = load ptr, ptr %8, align 8
  %22 = load ptr, ptr %21, align 8
  tail call void @wmem_free(ptr noundef %20, ptr noundef %22)
  %23 = tail call ptr @wmem_epan_scope()
  %24 = tail call ptr @range_empty(ptr noundef %23)
  %25 = load ptr, ptr %8, align 8
  store ptr %24, ptr %25, align 8
  br label %26

26:                                               ; preds = %7, %13, %19, %6
  %27 = tail call ptr @wmem_epan_scope()
  %28 = getelementptr inbounds nuw i8, ptr %0, i64 40
  %29 = load ptr, ptr %28, align 8
  %30 = tail call zeroext i1 @range_add_value(ptr noundef %27, ptr noundef %29, i32 noundef %1)
  br label %31

31:                                               ; preds = %3, %26
  ret i1 true
}